ARM GAS  C:\Users\Jukka\AppData\Local\Temp\ccdNFbr9.s 			page 1


   1              		.syntax unified
   2              		.cpu cortex-m3
   3              		.fpu softvfp
   4              		.eabi_attribute 20, 1
   5              		.eabi_attribute 21, 1
   6              		.eabi_attribute 23, 3
   7              		.eabi_attribute 24, 1
   8              		.eabi_attribute 25, 1
   9              		.eabi_attribute 26, 1
  10              		.eabi_attribute 30, 1
  11              		.eabi_attribute 34, 1
  12              		.eabi_attribute 18, 4
  13              		.thumb
  14              		.file	"main.c"
  15              		.text
  16              	.Ltext0:
  17              		.cfi_sections	.debug_frame
  18              		.section	.text.blinking_led,"ax",%progbits
  19              		.align	2
  20              		.global	blinking_led
  21              		.thumb
  22              		.thumb_func
  23              		.type	blinking_led, %function
  24              	blinking_led:
  25              	.LFB64:
  26              		.file 1 "main.c"
   1:main.c        **** /**
   2:main.c        **** * @mainpage ZumoBot Project
   3:main.c        **** * @brief    You can make your own ZumoBot with various sensors.
   4:main.c        **** * @details  <br><br>
   5:main.c        ****     <p>
   6:main.c        ****     <B>General</B><br>
   7:main.c        ****     You will use Pololu Zumo Shields for your robot project with CY8CKIT-059(PSoC 5LP) from Cypress
   8:main.c        ****     library has basic methods of various sensors and communications so that you can make what you w
   9:main.c        ****     <br><br>
  10:main.c        ****     </p>
  11:main.c        ****     
  12:main.c        ****     <p>
  13:main.c        ****     <B>Sensors</B><br>
  14:main.c        ****     &nbsp;Included: <br>
  15:main.c        ****         &nbsp;&nbsp;&nbsp;&nbsp;LSM303D: Accelerometer & Magnetometer<br>
  16:main.c        ****         &nbsp;&nbsp;&nbsp;&nbsp;L3GD20H: Gyroscope<br>
  17:main.c        ****         &nbsp;&nbsp;&nbsp;&nbsp;Reflectance sensor<br>
  18:main.c        ****         &nbsp;&nbsp;&nbsp;&nbsp;Motors
  19:main.c        ****     &nbsp;Wii nunchuck<br>
  20:main.c        ****     &nbsp;TSOP-2236: IR Receiver<br>
  21:main.c        ****     &nbsp;HC-SR04: Ultrasonic sensor<br>
  22:main.c        ****     &nbsp;APDS-9301: Ambient light sensor<br>
  23:main.c        ****     &nbsp;IR LED <br><br><br>
  24:main.c        ****     </p>
  25:main.c        ****     
  26:main.c        ****     <p>
  27:main.c        ****     <B>Communication</B><br>
  28:main.c        ****     I2C, UART, Serial<br>
  29:main.c        ****     </p>
  30:main.c        **** */
  31:main.c        **** 
ARM GAS  C:\Users\Jukka\AppData\Local\Temp\ccdNFbr9.s 			page 2


  32:main.c        **** #include <project.h>
  33:main.c        **** #include <stdio.h>
  34:main.c        **** #include "Motor.h"
  35:main.c        **** #include "Ultra.h"
  36:main.c        **** #include "Nunchuk.h"
  37:main.c        **** #include "Reflectance.h"
  38:main.c        **** #include "I2C_made.h"
  39:main.c        **** #include "Gyro.h"
  40:main.c        **** #include "Accel_magnet.h"
  41:main.c        **** #include "IR.h"
  42:main.c        **** #include "Ambient.h"
  43:main.c        **** #include "Beep.h"
  44:main.c        **** 
  45:main.c        **** int rread(void);
  46:main.c        **** void blinking_led ();
  47:main.c        **** void check_battery ();
  48:main.c        **** void move();
  49:main.c        **** int threshold_calculator (int black, int white);
  50:main.c        ****     int left = 1;
  51:main.c        ****     int left3 = 1;
  52:main.c        ****     int right = 1;
  53:main.c        ****     int right3 = 1;
  54:main.c        **** 
  55:main.c        ****     int blackLines=0;
  56:main.c        **** /**
  57:main.c        ****  * @file    main.c
  58:main.c        ****  * @brief   
  59:main.c        ****  * @details  ** You should enable global interrupt for operating properly. **<br>&nbsp;&nbsp;&nbsp;
  60:main.c        **** */
  61:main.c        **** 
  62:main.c        **** 
  63:main.c        **** //battery level//
  64:main.c        **** 
  65:main.c        **** /*int main()
  66:main.c        **** {
  67:main.c        ****     CyGlobalIntEnable; 
  68:main.c        ****     UART_1_Start();
  69:main.c        ****     ADC_Battery_Start();        
  70:main.c        ****     //int16 adcresult =0;
  71:main.c        ****     //float volts = 0.0;
  72:main.c        **** 
  73:main.c        ****     printf("\nBoot\n");
  74:main.c        ****     
  75:main.c        ****     //BatteryLed_Write(1); // Switch led on 
  76:main.c        ****     //BatteryLed_Write(0); // Switch led off
  77:main.c        **** 
  78:main.c        ****     //uint8 button;
  79:main.c        ****     //button = SW1_Read(); // read SW1 on pSoC board
  80:main.c        ****     while (SW1_Read() == 1);
  81:main.c        ****     printf("Startting program\n");
  82:main.c        ****     BatteryLed_Write(1); // Switch led on
  83:main.c        ****     check_battery();
  84:main.c        ****     CyDelay(2000);
  85:main.c        ****         
  86:main.c        ****     motor_start();                  // motor start
  87:main.c        ****         
  88:main.c        ****     motor_turn(230,250,1800);       //go forward
ARM GAS  C:\Users\Jukka\AppData\Local\Temp\ccdNFbr9.s 			page 3


  89:main.c        ****     motor_turn(250,10,335);          //turn 90 degrees right
  90:main.c        ****     motor_turn(230,250,1300);       //go forward
  91:main.c        ****     motor_turn(250,10,335);          //turn 90 degrees right
  92:main.c        ****     motor_turn(230,250,1400);       //go forward
  93:main.c        ****     motor_turn(250,10,375);          //turn 90+ degrees right
  94:main.c        ****     motor_turn(200,150,2000);       //turn smooth right
  95:main.c        ****     motor_turn(233,250,300);
  96:main.c        ****   //motor_backward(50,2000);        //moving backward
  97:main.c        ****        
  98:main.c        ****     motor_stop();                   // motor stop
  99:main.c        ****     
 100:main.c        ****     // test comment
 101:main.c        ****     
 102:main.c        ****     return 0;
 103:main.c        ****  }*/
 104:main.c        **** void check_battery () {
 105:main.c        ****     int16 adcresult =0;
 106:main.c        ****     float volts = 0.0;
 107:main.c        **** 
 108:main.c        ****         ADC_Battery_StartConvert();
 109:main.c        ****         if(ADC_Battery_IsEndConversion(ADC_Battery_WAIT_FOR_RESULT)) {   // wait for get ADC conver
 110:main.c        ****             adcresult = ADC_Battery_GetResult16();
 111:main.c        ****             volts = 1.5 * ADC_Battery_CountsTo_Volts(adcresult);                  // convert value 
 112:main.c        ****         
 113:main.c        ****             // If you want to print value
 114:main.c        ****             printf("%d %f\r\n",adcresult, volts);
 115:main.c        ****              
 116:main.c        ****         }
 117:main.c        ****         if (volts < 4.0) {
 118:main.c        ****             printf("Battery low!\n");
 119:main.c        ****             blinking_led();  
 120:main.c        ****         }
 121:main.c        **** }
 122:main.c        **** void blinking_led () {
  27              		.loc 1 122 0
  28              		.cfi_startproc
  29              		@ Volatile: function does not return.
  30              		@ args = 0, pretend = 0, frame = 0
  31              		@ frame_needed = 0, uses_anonymous_args = 0
  32 0000 08B5     		push	{r3, lr}
  33              		.cfi_def_cfa_offset 8
  34              		.cfi_offset 3, -8
  35              		.cfi_offset 14, -4
 123:main.c        ****     printf("Blinking\n");
  36              		.loc 1 123 0
  37 0002 0848     		ldr	r0, .L4
  38 0004 FFF7FEFF 		bl	puts
  39              	.LVL0:
  40              	.L2:
 124:main.c        ****        while(1) {
 125:main.c        ****        BatteryLed_Write(1); // Switch led on 
  41              		.loc 1 125 0 discriminator 1
  42 0008 0120     		movs	r0, #1
  43 000a FFF7FEFF 		bl	BatteryLed_Write
  44              	.LVL1:
 126:main.c        ****        CyDelay(50);
  45              		.loc 1 126 0 discriminator 1
ARM GAS  C:\Users\Jukka\AppData\Local\Temp\ccdNFbr9.s 			page 4


  46 000e 3220     		movs	r0, #50
  47 0010 FFF7FEFF 		bl	CyDelay
  48              	.LVL2:
 127:main.c        ****        BatteryLed_Write(0); // Switch led off
  49              		.loc 1 127 0 discriminator 1
  50 0014 0020     		movs	r0, #0
  51 0016 FFF7FEFF 		bl	BatteryLed_Write
  52              	.LVL3:
 128:main.c        ****        CyDelay(500);
  53              		.loc 1 128 0 discriminator 1
  54 001a 4FF4FA70 		mov	r0, #500
  55 001e FFF7FEFF 		bl	CyDelay
  56              	.LVL4:
 129:main.c        ****     }
  57              		.loc 1 129 0 discriminator 1
  58 0022 F1E7     		b	.L2
  59              	.L5:
  60              		.align	2
  61              	.L4:
  62 0024 00000000 		.word	.LC0
  63              		.cfi_endproc
  64              	.LFE64:
  65              		.size	blinking_led, .-blinking_led
  66              		.global	__aeabi_fmul
  67              		.global	__aeabi_f2d
  68              		.global	__aeabi_fcmplt
  69              		.section	.text.check_battery,"ax",%progbits
  70              		.align	2
  71              		.global	check_battery
  72              		.thumb
  73              		.thumb_func
  74              		.type	check_battery, %function
  75              	check_battery:
  76              	.LFB63:
 104:main.c        ****     int16 adcresult =0;
  77              		.loc 1 104 0
  78              		.cfi_startproc
  79              		@ args = 0, pretend = 0, frame = 0
  80              		@ frame_needed = 0, uses_anonymous_args = 0
  81 0000 38B5     		push	{r3, r4, r5, lr}
  82              		.cfi_def_cfa_offset 16
  83              		.cfi_offset 3, -16
  84              		.cfi_offset 4, -12
  85              		.cfi_offset 5, -8
  86              		.cfi_offset 14, -4
  87              	.LVL5:
 108:main.c        ****         if(ADC_Battery_IsEndConversion(ADC_Battery_WAIT_FOR_RESULT)) {   // wait for get ADC conver
  88              		.loc 1 108 0
  89 0002 FFF7FEFF 		bl	ADC_Battery_StartConvert
  90              	.LVL6:
 109:main.c        ****             adcresult = ADC_Battery_GetResult16();
  91              		.loc 1 109 0
  92 0006 0020     		movs	r0, #0
  93 0008 FFF7FEFF 		bl	ADC_Battery_IsEndConversion
  94              	.LVL7:
  95 000c 90B1     		cbz	r0, .L10
 110:main.c        ****             volts = 1.5 * ADC_Battery_CountsTo_Volts(adcresult);                  // convert value 
ARM GAS  C:\Users\Jukka\AppData\Local\Temp\ccdNFbr9.s 			page 5


  96              		.loc 1 110 0
  97 000e FFF7FEFF 		bl	ADC_Battery_GetResult16
  98              	.LVL8:
  99 0012 0546     		mov	r5, r0
 100              	.LVL9:
 111:main.c        ****         
 101              		.loc 1 111 0
 102 0014 FFF7FEFF 		bl	ADC_Battery_CountsTo_Volts
 103              	.LVL10:
 104 0018 4FF07F51 		mov	r1, #1069547520
 105 001c FFF7FEFF 		bl	__aeabi_fmul
 106              	.LVL11:
 107 0020 0446     		mov	r4, r0
 108              	.LVL12:
 114:main.c        ****              
 109              		.loc 1 114 0
 110 0022 FFF7FEFF 		bl	__aeabi_f2d
 111              	.LVL13:
 112 0026 0246     		mov	r2, r0
 113 0028 0B46     		mov	r3, r1
 114 002a 0948     		ldr	r0, .L14
 115 002c 2946     		mov	r1, r5
 116 002e FFF7FEFF 		bl	printf
 117              	.LVL14:
 118 0032 00E0     		b	.L7
 119              	.LVL15:
 120              	.L10:
 106:main.c        **** 
 121              		.loc 1 106 0
 122 0034 0024     		movs	r4, #0
 123              	.LVL16:
 124              	.L7:
 117:main.c        ****             printf("Battery low!\n");
 125              		.loc 1 117 0
 126 0036 2046     		mov	r0, r4
 127 0038 4FF08141 		mov	r1, #1082130432
 128 003c FFF7FEFF 		bl	__aeabi_fcmplt
 129              	.LVL17:
 130 0040 20B1     		cbz	r0, .L12
 118:main.c        ****             blinking_led();  
 131              		.loc 1 118 0
 132 0042 0448     		ldr	r0, .L14+4
 133 0044 FFF7FEFF 		bl	puts
 134              	.LVL18:
 119:main.c        ****         }
 135              		.loc 1 119 0
 136 0048 FFF7FEFF 		bl	blinking_led
 137              	.LVL19:
 138              	.L12:
 139 004c 38BD     		pop	{r3, r4, r5, pc}
 140              	.LVL20:
 141              	.L15:
 142 004e 00BF     		.align	2
 143              	.L14:
 144 0050 0C000000 		.word	.LC1
 145 0054 14000000 		.word	.LC2
 146              		.cfi_endproc
ARM GAS  C:\Users\Jukka\AppData\Local\Temp\ccdNFbr9.s 			page 6


 147              	.LFE63:
 148              		.size	check_battery, .-check_battery
 149              		.section	.text.threshold_calculator,"ax",%progbits
 150              		.align	2
 151              		.global	threshold_calculator
 152              		.thumb
 153              		.thumb_func
 154              		.type	threshold_calculator, %function
 155              	threshold_calculator:
 156              	.LFB66:
 130:main.c        ****     
 131:main.c        **** }
 132:main.c        **** //*/
 133:main.c        **** 
 134:main.c        **** 
 135:main.c        **** /*//ultra sonic sensor//
 136:main.c        **** int main()
 137:main.c        **** {
 138:main.c        ****     CyGlobalIntEnable; 
 139:main.c        ****     UART_1_Start();
 140:main.c        ****     Ultra_Start();                          // Ultra Sonic Start function
 141:main.c        ****     while(1) {
 142:main.c        ****         //If you want to print out the value  
 143:main.c        ****         printf("distance = %5.0f\r\n", Ultra_GetDistance());
 144:main.c        ****         CyDelay(1000);
 145:main.c        ****     }
 146:main.c        **** }   
 147:main.c        **** //*/
 148:main.c        **** 
 149:main.c        **** 
 150:main.c        **** /*//nunchuk//
 151:main.c        **** int main()
 152:main.c        **** {
 153:main.c        ****     CyGlobalIntEnable; 
 154:main.c        ****     UART_1_Start();
 155:main.c        ****   
 156:main.c        ****     nunchuk_start();
 157:main.c        ****     nunchuk_init();
 158:main.c        ****     
 159:main.c        ****     for(;;)
 160:main.c        ****     {    
 161:main.c        ****         nunchuk_read();
 162:main.c        ****     }
 163:main.c        **** }   
 164:main.c        **** //*/
 165:main.c        **** 
 166:main.c        **** 
 167:main.c        **** /*//IR receiver//
 168:main.c        **** int main()
 169:main.c        **** {
 170:main.c        ****     CyGlobalIntEnable; 
 171:main.c        ****     UART_1_Start();
 172:main.c        ****     
 173:main.c        ****     unsigned int IR_val; 
 174:main.c        ****     
 175:main.c        ****     for(;;)
 176:main.c        ****     {
ARM GAS  C:\Users\Jukka\AppData\Local\Temp\ccdNFbr9.s 			page 7


 177:main.c        ****        IR_val = get_IR();
 178:main.c        ****        printf("%x\r\n\n",IR_val);
 179:main.c        ****     }    
 180:main.c        ****  }   
 181:main.c        **** //*/
 182:main.c        **** 
 183:main.c        **** 
 184:main.c        **** /*//Ambient light sensor//
 185:main.c        **** int main()
 186:main.c        **** {
 187:main.c        ****     CyGlobalIntEnable; 
 188:main.c        ****     UART_1_Start();
 189:main.c        ****     
 190:main.c        ****     I2C_Start();
 191:main.c        ****     
 192:main.c        ****     I2C_write(0x29,0x80,0x00);          // set to power down
 193:main.c        ****     I2C_write(0x29,0x80,0x03);          // set to power on
 194:main.c        ****     
 195:main.c        ****     for(;;)
 196:main.c        ****     {    
 197:main.c        ****         uint8 Data0Low,Data0High,Data1Low,Data1High;
 198:main.c        ****         Data0Low = I2C_read(0x29,CH0_L);
 199:main.c        ****         Data0High = I2C_read(0x29,CH0_H);
 200:main.c        ****         Data1Low = I2C_read(0x29,CH1_L);
 201:main.c        ****         Data1High = I2C_read(0x29,CH1_H);
 202:main.c        ****         
 203:main.c        ****         uint8 CH0, CH1;
 204:main.c        ****         CH0 = convert_raw(Data0Low,Data0High);      // combine Data0
 205:main.c        ****         CH1 = convert_raw(Data1Low,Data1High);      // combine Data1
 206:main.c        **** 
 207:main.c        ****         double Ch0 = CH0;
 208:main.c        ****         double Ch1 = CH1;
 209:main.c        ****         
 210:main.c        ****         double data = 0;
 211:main.c        ****         data = getLux(Ch0,Ch1);
 212:main.c        ****         
 213:main.c        ****         // If you want to print out data
 214:main.c        ****         //printf("%lf\r\n",data);    
 215:main.c        ****     }    
 216:main.c        ****  }   
 217:main.c        **** //*/
 218:main.c        **** 
 219:main.c        **** 
 220:main.c        **** /*//accelerometer//
 221:main.c        **** int main()
 222:main.c        **** {
 223:main.c        ****     CyGlobalIntEnable; 
 224:main.c        ****     UART_1_Start();
 225:main.c        ****   
 226:main.c        ****     I2C_Start();
 227:main.c        ****   
 228:main.c        ****     uint8 X_L_A, X_H_A, Y_L_A, Y_H_A, Z_L_A, Z_H_A;
 229:main.c        ****     int16 X_AXIS_A, Y_AXIS_A, Z_AXIS_A;
 230:main.c        ****     
 231:main.c        ****     I2C_write(ACCEL_MAG_ADDR, ACCEL_CTRL1_REG, 0x37);           // set accelerometer & magnetometer
 232:main.c        ****     I2C_write(ACCEL_MAG_ADDR, ACCEL_CTRL7_REG, 0x22);
 233:main.c        ****     
ARM GAS  C:\Users\Jukka\AppData\Local\Temp\ccdNFbr9.s 			page 8


 234:main.c        ****     
 235:main.c        ****     for(;;)
 236:main.c        ****     {
 237:main.c        ****         //print out accelerometer output
 238:main.c        ****         X_L_A = I2C_read(ACCEL_MAG_ADDR, OUT_X_L_A);
 239:main.c        ****         X_H_A = I2C_read(ACCEL_MAG_ADDR, OUT_X_H_A);
 240:main.c        ****         X_AXIS_A = convert_raw(X_L_A, X_H_A);
 241:main.c        ****         
 242:main.c        ****         Y_L_A = I2C_read(ACCEL_MAG_ADDR, OUT_Y_L_A);
 243:main.c        ****         Y_H_A = I2C_read(ACCEL_MAG_ADDR, OUT_Y_H_A);
 244:main.c        ****         Y_AXIS_A = convert_raw(Y_L_A, Y_H_A);
 245:main.c        ****         
 246:main.c        ****         Z_L_A = I2C_read(ACCEL_MAG_ADDR, OUT_Z_L_A);
 247:main.c        ****         Z_H_A = I2C_read(ACCEL_MAG_ADDR, OUT_Z_H_A);
 248:main.c        ****         Z_AXIS_A = convert_raw(Z_L_A, Z_H_A);
 249:main.c        ****         
 250:main.c        ****         printf("ACCEL: %d %d %d %d %d %d \r\n", X_L_A, X_H_A, Y_L_A, Y_H_A, Z_L_A, Z_H_A);
 251:main.c        ****         value_convert_accel(X_AXIS_A, Y_AXIS_A, Z_AXIS_A);
 252:main.c        ****         printf("\n");
 253:main.c        ****         
 254:main.c        ****         CyDelay(50);
 255:main.c        ****     }
 256:main.c        **** }   
 257:main.c        **** //*/
 258:main.c        **** 
 259:main.c        **** 
 260:main.c        **** //reflectance//
 261:main.c        **** int main()
 262:main.c        **** {
 263:main.c        ****     ADC_Battery_Start();
 264:main.c        ****     CyGlobalIntEnable; 
 265:main.c        ****     UART_1_Start();
 266:main.c        ****   
 267:main.c        ****     sensor_isr_StartEx(sensor_isr_handler);
 268:main.c        ****     
 269:main.c        ****     reflectance_start();
 270:main.c        **** 
 271:main.c        ****     IR_led_Write(1);
 272:main.c        ****     
 273:main.c        ****     CyDelay(10);
 274:main.c        ****    
 275:main.c        ****     BatteryLed_Write(1); // Switch led on
 276:main.c        ****     check_battery();
 277:main.c        ****     
 278:main.c        ****     while (SW1_Read() == 1); // Calibrate
 279:main.c        ****     CyDelay(500);
 280:main.c        ****     struct sensors_ ref;
 281:main.c        **** 
 282:main.c        ****     
 283:main.c        ****     reflectance_read(&ref);
 284:main.c        ****     
 285:main.c        ****     int blackl3 = ref.l3;
 286:main.c        ****     int blackl1 = ref.l1;
 287:main.c        ****     int blackr1 = ref.r1;
 288:main.c        ****     int blackr3 = ref.r3;
 289:main.c        ****     motor_start();
 290:main.c        ****     motor_forward(100,500);
ARM GAS  C:\Users\Jukka\AppData\Local\Temp\ccdNFbr9.s 			page 9


 291:main.c        ****     motor_stop();
 292:main.c        ****     reflectance_read(&ref);
 293:main.c        ****     int whitel3 = ref.l3;
 294:main.c        ****     int whitel1 = ref.l1;
 295:main.c        ****     int whiter1 = ref.r1;
 296:main.c        ****     int whiter3 = ref.r3;
 297:main.c        ****     
 298:main.c        ****     
 299:main.c        ****     reflectance_set_threshold(threshold_calculator(blackl3,whitel3),
 300:main.c        ****                               threshold_calculator(blackl1,whitel1),
 301:main.c        ****                               threshold_calculator(blackr1,whiter1),
 302:main.c        ****                               threshold_calculator(blackr3,whiter3));
 303:main.c        ****     while (SW1_Read() == 1); //Start to move
 304:main.c        ****     CyDelay(1000);
 305:main.c        ****     
 306:main.c        ****     long timer=0;
 307:main.c        ****     motor_start();
 308:main.c        ****     while(blackLines < 3)
 309:main.c        ****     {
 310:main.c        ****         move();
 311:main.c        ****         //CyDelay(10);
 312:main.c        ****         timer += 1;
 313:main.c        ****     }
 314:main.c        ****     
 315:main.c        ****     motor_stop();
 316:main.c        ****     while(1){
 317:main.c        ****     printf("%ld\n",timer);
 318:main.c        ****     CyDelay(1000);
 319:main.c        ****     }
 320:main.c        ****     return 0;
 321:main.c        ****     
 322:main.c        **** }
 323:main.c        **** int threshold_calculator (int black, int white) {
 157              		.loc 1 323 0
 158              		.cfi_startproc
 159              		@ args = 0, pretend = 0, frame = 0
 160              		@ frame_needed = 0, uses_anonymous_args = 0
 161              		@ link register save eliminated.
 162              	.LVL21:
 324:main.c        ****  return white + ((black - white)/2);   
 163              		.loc 1 324 0
 164 0000 401A     		subs	r0, r0, r1
 165              	.LVL22:
 166 0002 00EBD070 		add	r0, r0, r0, lsr #31
 325:main.c        **** }
 167              		.loc 1 325 0
 168 0006 01EB6000 		add	r0, r1, r0, asr #1
 169 000a 7047     		bx	lr
 170              		.cfi_endproc
 171              	.LFE66:
 172              		.size	threshold_calculator, .-threshold_calculator
 173              		.section	.text.move,"ax",%progbits
 174              		.align	2
 175              		.global	move
 176              		.thumb
 177              		.thumb_func
 178              		.type	move, %function
ARM GAS  C:\Users\Jukka\AppData\Local\Temp\ccdNFbr9.s 			page 10


 179              	move:
 180              	.LFB67:
 326:main.c        **** void move () {
 181              		.loc 1 326 0
 182              		.cfi_startproc
 183              		@ args = 0, pretend = 0, frame = 16
 184              		@ frame_needed = 0, uses_anonymous_args = 0
 185 0000 00B5     		push	{lr}
 186              		.cfi_def_cfa_offset 4
 187              		.cfi_offset 14, -4
 188 0002 85B0     		sub	sp, sp, #20
 189              		.cfi_def_cfa_offset 24
 327:main.c        ****     struct sensors_ ref;
 328:main.c        ****     struct sensors_ dig;
 329:main.c        ****     
 330:main.c        ****     reflectance_read(&ref);
 190              		.loc 1 330 0
 191 0004 02A8     		add	r0, sp, #8
 192 0006 FFF7FEFF 		bl	reflectance_read
 193              	.LVL23:
 331:main.c        ****         //printf("%d %d %d %d \r\n", ref.l3, ref.l1, ref.r1, ref.r3);       //print out each period
 332:main.c        ****         reflectance_digital(&dig);      //print out 0 or 1 according to results of reflectance peri
 194              		.loc 1 332 0
 195 000a 6846     		mov	r0, sp
 196 000c FFF7FEFF 		bl	reflectance_digital
 197              	.LVL24:
 333:main.c        ****        // printf("%d %d %d %d \r\n", dig.l3, dig.l1, dig.r1, dig.r3);        //print out 0 or 1 acc
 334:main.c        ****        // CyDelay(100);
 335:main.c        ****         if (!(left == 0 && left3 == 0 && right == 0 && right3 == 0) && (dig.l1 ==  0 && dig.r1 == 0
 198              		.loc 1 335 0
 199 0010 4A4B     		ldr	r3, .L33
 200 0012 1A68     		ldr	r2, [r3]
 201 0014 3AB9     		cbnz	r2, .L18
 202              		.loc 1 335 0 is_stmt 0 discriminator 2
 203 0016 5B68     		ldr	r3, [r3, #4]
 204 0018 2BB9     		cbnz	r3, .L18
 205              		.loc 1 335 0 discriminator 4
 206 001a 484B     		ldr	r3, .L33
 207 001c 9B68     		ldr	r3, [r3, #8]
 208 001e 13B9     		cbnz	r3, .L18
 209              		.loc 1 335 0 discriminator 6
 210 0020 464B     		ldr	r3, .L33
 211 0022 DB68     		ldr	r3, [r3, #12]
 212 0024 7BB1     		cbz	r3, .L19
 213              	.L18:
 214              		.loc 1 335 0 discriminator 7
 215 0026 BDF80230 		ldrh	r3, [sp, #2]
 216 002a 63B9     		cbnz	r3, .L19
 217              		.loc 1 335 0 discriminator 8
 218 002c BDF80430 		ldrh	r3, [sp, #4]
 219 0030 4BB9     		cbnz	r3, .L19
 220              		.loc 1 335 0 discriminator 9
 221 0032 BDF80630 		ldrh	r3, [sp, #6]
 222 0036 33B9     		cbnz	r3, .L19
 223              		.loc 1 335 0 discriminator 10
 224 0038 BDF80030 		ldrh	r3, [sp]
 225 003c 1BB9     		cbnz	r3, .L19
ARM GAS  C:\Users\Jukka\AppData\Local\Temp\ccdNFbr9.s 			page 11


 336:main.c        ****             blackLines +=1;
 226              		.loc 1 336 0 is_stmt 1
 227 003e 4049     		ldr	r1, .L33+4
 228 0040 0B68     		ldr	r3, [r1]
 229 0042 0133     		adds	r3, r3, #1
 230 0044 0B60     		str	r3, [r1]
 231              	.L19:
 337:main.c        ****         }
 338:main.c        ****         
 339:main.c        ****         
 340:main.c        ****         
 341:main.c        ****         
 342:main.c        ****         if( (dig.l1 == 0 && dig.r1 == 0 && dig.l3 == 1 && dig.r3 == 1) || (dig.l1 == 0 && dig.r1 ==
 232              		.loc 1 342 0
 233 0046 BDF80230 		ldrh	r3, [sp, #2]
 234 004a 53B9     		cbnz	r3, .L20
 235              		.loc 1 342 0 is_stmt 0 discriminator 1
 236 004c BDF80410 		ldrh	r1, [sp, #4]
 237 0050 39B9     		cbnz	r1, .L20
 238              		.loc 1 342 0 discriminator 3
 239 0052 BDF80010 		ldrh	r1, [sp]
 240 0056 0129     		cmp	r1, #1
 241 0058 03D1     		bne	.L20
 242              		.loc 1 342 0 discriminator 5
 243 005a BDF80610 		ldrh	r1, [sp, #6]
 244 005e 0129     		cmp	r1, #1
 245 0060 09D0     		beq	.L21
 246              	.L20:
 247              		.loc 1 342 0 discriminator 7
 248 0062 6BB9     		cbnz	r3, .L22
 249              		.loc 1 342 0 discriminator 8
 250 0064 BDF80410 		ldrh	r1, [sp, #4]
 251 0068 51B9     		cbnz	r1, .L22
 252              		.loc 1 342 0 discriminator 9
 253 006a BDF80010 		ldrh	r1, [sp]
 254 006e 39B9     		cbnz	r1, .L22
 255              		.loc 1 342 0 discriminator 10
 256 0070 BDF80610 		ldrh	r1, [sp, #6]
 257 0074 21B9     		cbnz	r1, .L22
 258              	.L21:
 343:main.c        ****             motor_forward(255,1);
 259              		.loc 1 343 0 is_stmt 1
 260 0076 FF20     		movs	r0, #255
 261 0078 0121     		movs	r1, #1
 262 007a FFF7FEFF 		bl	motor_forward
 263              	.LVL25:
 264 007e 3FE0     		b	.L23
 265              	.L22:
 344:main.c        ****         }
 345:main.c        ****         else if (dig.l1 == 1 && dig.r1 == 0) {
 266              		.loc 1 345 0
 267 0080 012B     		cmp	r3, #1
 268 0082 08D1     		bne	.L24
 269              		.loc 1 345 0 is_stmt 0 discriminator 1
 270 0084 BDF80410 		ldrh	r1, [sp, #4]
 271 0088 29B9     		cbnz	r1, .L24
 346:main.c        ****             motor_turn(255,170,1);            
ARM GAS  C:\Users\Jukka\AppData\Local\Temp\ccdNFbr9.s 			page 12


 272              		.loc 1 346 0 is_stmt 1
 273 008a FF20     		movs	r0, #255
 274 008c AA21     		movs	r1, #170
 275 008e 0122     		movs	r2, #1
 276 0090 FFF7FEFF 		bl	motor_turn
 277              	.LVL26:
 278 0094 34E0     		b	.L23
 279              	.L24:
 347:main.c        ****         }
 348:main.c        ****         else if (dig.l1 == 0 && dig.r1 == 1) {
 280              		.loc 1 348 0
 281 0096 4BB9     		cbnz	r3, .L25
 282              		.loc 1 348 0 is_stmt 0 discriminator 1
 283 0098 BDF80410 		ldrh	r1, [sp, #4]
 284 009c 0129     		cmp	r1, #1
 285 009e 05D1     		bne	.L25
 349:main.c        ****             motor_turn(170,255,1);   
 286              		.loc 1 349 0 is_stmt 1
 287 00a0 AA20     		movs	r0, #170
 288 00a2 FF21     		movs	r1, #255
 289 00a4 0122     		movs	r2, #1
 290 00a6 FFF7FEFF 		bl	motor_turn
 291              	.LVL27:
 292 00aa 29E0     		b	.L23
 293              	.L25:
 350:main.c        ****         }else if ((dig.l3  == 0 || dig.r3 == 0) && (dig.l1 == 1 && dig.r1 == 1)) {
 294              		.loc 1 350 0
 295 00ac BDF80010 		ldrh	r1, [sp]
 296 00b0 11B1     		cbz	r1, .L26
 297              		.loc 1 350 0 is_stmt 0 discriminator 2
 298 00b2 BDF80600 		ldrh	r0, [sp, #6]
 299 00b6 A0B9     		cbnz	r0, .L27
 300              	.L26:
 301              		.loc 1 350 0 discriminator 3
 302 00b8 012B     		cmp	r3, #1
 303 00ba 12D1     		bne	.L27
 304              		.loc 1 350 0 discriminator 4
 305 00bc BDF80430 		ldrh	r3, [sp, #4]
 306 00c0 012B     		cmp	r3, #1
 307 00c2 0ED1     		bne	.L27
 351:main.c        ****             if(dig.l3 == 0) {
 308              		.loc 1 351 0 is_stmt 1
 309 00c4 21B9     		cbnz	r1, .L28
 352:main.c        ****              //   motor_turn(5,255,1);
 353:main.c        ****                 motor_turnHardLeft(70,255,1);
 310              		.loc 1 353 0
 311 00c6 4620     		movs	r0, #70
 312 00c8 FF21     		movs	r1, #255
 313 00ca 0122     		movs	r2, #1
 314 00cc FFF7FEFF 		bl	motor_turnHardLeft
 315              	.LVL28:
 316              	.L28:
 354:main.c        ****             } if (dig.r3 == 0) {
 317              		.loc 1 354 0
 318 00d0 BDF80630 		ldrh	r3, [sp, #6]
 319 00d4 A3B9     		cbnz	r3, .L23
 355:main.c        ****              //   motor_turn(255,5,1);   
ARM GAS  C:\Users\Jukka\AppData\Local\Temp\ccdNFbr9.s 			page 13


 356:main.c        ****                 motor_turnHardRight(255,70,1);
 320              		.loc 1 356 0
 321 00d6 FF20     		movs	r0, #255
 322 00d8 4621     		movs	r1, #70
 323 00da 0122     		movs	r2, #1
 324 00dc FFF7FEFF 		bl	motor_turnHardRight
 325              	.LVL29:
 326 00e0 0EE0     		b	.L23
 327              	.L27:
 357:main.c        ****             }
 358:main.c        ****         }else {
 359:main.c        ****             if(left == 0){
 328              		.loc 1 359 0
 329 00e2 2AB9     		cbnz	r2, .L29
 360:main.c        ****                 motor_turn(10,255,1);  
 330              		.loc 1 360 0
 331 00e4 0A20     		movs	r0, #10
 332 00e6 FF21     		movs	r1, #255
 333 00e8 0122     		movs	r2, #1
 334 00ea FFF7FEFF 		bl	motor_turn
 335              	.LVL30:
 336 00ee 07E0     		b	.L23
 337              	.L29:
 361:main.c        ****             } else if (right == 0) {
 338              		.loc 1 361 0
 339 00f0 124B     		ldr	r3, .L33
 340 00f2 9B68     		ldr	r3, [r3, #8]
 341 00f4 23B9     		cbnz	r3, .L23
 362:main.c        ****                 motor_turn(255,10,1);  
 342              		.loc 1 362 0
 343 00f6 FF20     		movs	r0, #255
 344 00f8 0A21     		movs	r1, #10
 345 00fa 0122     		movs	r2, #1
 346 00fc FFF7FEFF 		bl	motor_turn
 347              	.LVL31:
 348              	.L23:
 363:main.c        ****             }
 364:main.c        ****         }
 365:main.c        ****         if(!(dig.l1 ==  1 && dig.r1 == 1 && dig.r3 == 1 && dig.l3 == 1)){
 349              		.loc 1 365 0
 350 0100 BDF80220 		ldrh	r2, [sp, #2]
 351 0104 012A     		cmp	r2, #1
 352 0106 0BD1     		bne	.L30
 353              		.loc 1 365 0 is_stmt 0 discriminator 1
 354 0108 BDF80430 		ldrh	r3, [sp, #4]
 355 010c 012B     		cmp	r3, #1
 356 010e 07D1     		bne	.L30
 357              		.loc 1 365 0 discriminator 2
 358 0110 BDF80630 		ldrh	r3, [sp, #6]
 359 0114 012B     		cmp	r3, #1
 360 0116 03D1     		bne	.L30
 361              		.loc 1 365 0 discriminator 3
 362 0118 BDF80030 		ldrh	r3, [sp]
 363 011c 012B     		cmp	r3, #1
 364 011e 0AD0     		beq	.L17
 365              	.L30:
 366:main.c        ****             left = dig.l1;
ARM GAS  C:\Users\Jukka\AppData\Local\Temp\ccdNFbr9.s 			page 14


 366              		.loc 1 366 0 is_stmt 1
 367 0120 064B     		ldr	r3, .L33
 368 0122 1A60     		str	r2, [r3]
 367:main.c        ****             right = dig.r1;
 369              		.loc 1 367 0
 370 0124 BDF80420 		ldrh	r2, [sp, #4]
 371 0128 9A60     		str	r2, [r3, #8]
 368:main.c        ****             right3 = dig.r3;
 372              		.loc 1 368 0
 373 012a BDF80620 		ldrh	r2, [sp, #6]
 374 012e DA60     		str	r2, [r3, #12]
 369:main.c        ****             left3 = dig.l3;
 375              		.loc 1 369 0
 376 0130 BDF80020 		ldrh	r2, [sp]
 377 0134 5A60     		str	r2, [r3, #4]
 378              	.L17:
 370:main.c        ****         }
 371:main.c        **** }
 379              		.loc 1 371 0
 380 0136 05B0     		add	sp, sp, #20
 381              		.cfi_def_cfa_offset 4
 382              		@ sp needed
 383 0138 5DF804FB 		ldr	pc, [sp], #4
 384              	.L34:
 385              		.align	2
 386              	.L33:
 387 013c 00000000 		.word	.LANCHOR0
 388 0140 00000000 		.word	.LANCHOR1
 389              		.cfi_endproc
 390              	.LFE67:
 391              		.size	move, .-move
 392              		.section	.text.main,"ax",%progbits
 393              		.align	2
 394              		.global	main
 395              		.thumb
 396              		.thumb_func
 397              		.type	main, %function
 398              	main:
 399              	.LFB65:
 262:main.c        ****     ADC_Battery_Start();
 400              		.loc 1 262 0
 401              		.cfi_startproc
 402              		@ args = 0, pretend = 0, frame = 8
 403              		@ frame_needed = 0, uses_anonymous_args = 0
 404 0000 2DE9F047 		push	{r4, r5, r6, r7, r8, r9, r10, lr}
 405              		.cfi_def_cfa_offset 32
 406              		.cfi_offset 4, -32
 407              		.cfi_offset 5, -28
 408              		.cfi_offset 6, -24
 409              		.cfi_offset 7, -20
 410              		.cfi_offset 8, -16
 411              		.cfi_offset 9, -12
 412              		.cfi_offset 10, -8
 413              		.cfi_offset 14, -4
 414 0004 82B0     		sub	sp, sp, #8
 415              		.cfi_def_cfa_offset 40
 263:main.c        ****     CyGlobalIntEnable; 
ARM GAS  C:\Users\Jukka\AppData\Local\Temp\ccdNFbr9.s 			page 15


 416              		.loc 1 263 0
 417 0006 FFF7FEFF 		bl	ADC_Battery_Start
 418              	.LVL32:
 264:main.c        ****     UART_1_Start();
 419              		.loc 1 264 0
 420              	@ 264 "main.c" 1
 421 000a 62B6     		CPSIE   i
 422              	@ 0 "" 2
 265:main.c        ****   
 423              		.loc 1 265 0
 424              		.thumb
 425 000c FFF7FEFF 		bl	UART_1_Start
 426              	.LVL33:
 267:main.c        ****     
 427              		.loc 1 267 0
 428 0010 3648     		ldr	r0, .L42
 429 0012 FFF7FEFF 		bl	sensor_isr_StartEx
 430              	.LVL34:
 269:main.c        **** 
 431              		.loc 1 269 0
 432 0016 FFF7FEFF 		bl	reflectance_start
 433              	.LVL35:
 271:main.c        ****     
 434              		.loc 1 271 0
 435 001a 0120     		movs	r0, #1
 436 001c FFF7FEFF 		bl	IR_led_Write
 437              	.LVL36:
 273:main.c        ****    
 438              		.loc 1 273 0
 439 0020 0A20     		movs	r0, #10
 440 0022 FFF7FEFF 		bl	CyDelay
 441              	.LVL37:
 275:main.c        ****     check_battery();
 442              		.loc 1 275 0
 443 0026 0120     		movs	r0, #1
 444 0028 FFF7FEFF 		bl	BatteryLed_Write
 445              	.LVL38:
 276:main.c        ****     
 446              		.loc 1 276 0
 447 002c FFF7FEFF 		bl	check_battery
 448              	.LVL39:
 449              	.L36:
 278:main.c        ****     CyDelay(500);
 450              		.loc 1 278 0 discriminator 1
 451 0030 FFF7FEFF 		bl	SW1_Read
 452              	.LVL40:
 453 0034 0128     		cmp	r0, #1
 454 0036 FBD0     		beq	.L36
 279:main.c        ****     struct sensors_ ref;
 455              		.loc 1 279 0
 456 0038 4FF4FA70 		mov	r0, #500
 457 003c FFF7FEFF 		bl	CyDelay
 458              	.LVL41:
 283:main.c        ****     
 459              		.loc 1 283 0
 460 0040 6846     		mov	r0, sp
 461 0042 FFF7FEFF 		bl	reflectance_read
ARM GAS  C:\Users\Jukka\AppData\Local\Temp\ccdNFbr9.s 			page 16


 462              	.LVL42:
 285:main.c        ****     int blackl1 = ref.l1;
 463              		.loc 1 285 0
 464 0046 BDF80060 		ldrh	r6, [sp]
 465              	.LVL43:
 286:main.c        ****     int blackr1 = ref.r1;
 466              		.loc 1 286 0
 467 004a BDF802A0 		ldrh	r10, [sp, #2]
 468              	.LVL44:
 287:main.c        ****     int blackr3 = ref.r3;
 469              		.loc 1 287 0
 470 004e BDF80490 		ldrh	r9, [sp, #4]
 471              	.LVL45:
 288:main.c        ****     motor_start();
 472              		.loc 1 288 0
 473 0052 BDF80680 		ldrh	r8, [sp, #6]
 474              	.LVL46:
 289:main.c        ****     motor_forward(100,500);
 475              		.loc 1 289 0
 476 0056 FFF7FEFF 		bl	motor_start
 477              	.LVL47:
 290:main.c        ****     motor_stop();
 478              		.loc 1 290 0
 479 005a 6420     		movs	r0, #100
 480 005c 4FF4FA71 		mov	r1, #500
 481 0060 FFF7FEFF 		bl	motor_forward
 482              	.LVL48:
 291:main.c        ****     reflectance_read(&ref);
 483              		.loc 1 291 0
 484 0064 FFF7FEFF 		bl	motor_stop
 485              	.LVL49:
 292:main.c        ****     int whitel3 = ref.l3;
 486              		.loc 1 292 0
 487 0068 6846     		mov	r0, sp
 488 006a FFF7FEFF 		bl	reflectance_read
 489              	.LVL50:
 294:main.c        ****     int whiter1 = ref.r1;
 490              		.loc 1 294 0
 491 006e BDF80250 		ldrh	r5, [sp, #2]
 492              	.LVL51:
 295:main.c        ****     int whiter3 = ref.r3;
 493              		.loc 1 295 0
 494 0072 BDF80440 		ldrh	r4, [sp, #4]
 495              	.LVL52:
 296:main.c        ****     
 496              		.loc 1 296 0
 497 0076 BDF80670 		ldrh	r7, [sp, #6]
 498              	.LVL53:
 299:main.c        ****                               threshold_calculator(blackl1,whitel1),
 499              		.loc 1 299 0
 500 007a 3046     		mov	r0, r6
 501 007c BDF80010 		ldrh	r1, [sp]
 502              	.LVL54:
 503 0080 FFF7FEFF 		bl	threshold_calculator
 504              	.LVL55:
 505 0084 0646     		mov	r6, r0
 506              	.LVL56:
ARM GAS  C:\Users\Jukka\AppData\Local\Temp\ccdNFbr9.s 			page 17


 300:main.c        ****                               threshold_calculator(blackr1,whiter1),
 507              		.loc 1 300 0
 508 0086 5046     		mov	r0, r10
 509 0088 2946     		mov	r1, r5
 510 008a FFF7FEFF 		bl	threshold_calculator
 511              	.LVL57:
 512 008e 0546     		mov	r5, r0
 513              	.LVL58:
 301:main.c        ****                               threshold_calculator(blackr3,whiter3));
 514              		.loc 1 301 0
 515 0090 4846     		mov	r0, r9
 516 0092 2146     		mov	r1, r4
 517 0094 FFF7FEFF 		bl	threshold_calculator
 518              	.LVL59:
 519 0098 0446     		mov	r4, r0
 520              	.LVL60:
 302:main.c        ****     while (SW1_Read() == 1); //Start to move
 521              		.loc 1 302 0
 522 009a 4046     		mov	r0, r8
 523 009c 3946     		mov	r1, r7
 524 009e FFF7FEFF 		bl	threshold_calculator
 525              	.LVL61:
 299:main.c        ****                               threshold_calculator(blackl1,whitel1),
 526              		.loc 1 299 0
 527 00a2 83B2     		uxth	r3, r0
 528 00a4 B0B2     		uxth	r0, r6
 529 00a6 A9B2     		uxth	r1, r5
 530 00a8 A2B2     		uxth	r2, r4
 531 00aa FFF7FEFF 		bl	reflectance_set_threshold
 532              	.LVL62:
 533              	.L37:
 303:main.c        ****     CyDelay(1000);
 534              		.loc 1 303 0 discriminator 1
 535 00ae FFF7FEFF 		bl	SW1_Read
 536              	.LVL63:
 537 00b2 0128     		cmp	r0, #1
 538 00b4 FBD0     		beq	.L37
 304:main.c        ****     
 539              		.loc 1 304 0
 540 00b6 4FF47A70 		mov	r0, #1000
 541 00ba FFF7FEFF 		bl	CyDelay
 542              	.LVL64:
 307:main.c        ****     while(blackLines < 3)
 543              		.loc 1 307 0
 544 00be FFF7FEFF 		bl	motor_start
 545              	.LVL65:
 306:main.c        ****     motor_start();
 546              		.loc 1 306 0
 547 00c2 0024     		movs	r4, #0
 308:main.c        ****     {
 548              		.loc 1 308 0
 549 00c4 02E0     		b	.L38
 550              	.LVL66:
 551              	.L39:
 310:main.c        ****         //CyDelay(10);
 552              		.loc 1 310 0
 553 00c6 FFF7FEFF 		bl	move
ARM GAS  C:\Users\Jukka\AppData\Local\Temp\ccdNFbr9.s 			page 18


 554              	.LVL67:
 312:main.c        ****     }
 555              		.loc 1 312 0
 556 00ca 0134     		adds	r4, r4, #1
 557              	.LVL68:
 558              	.L38:
 308:main.c        ****     {
 559              		.loc 1 308 0
 560 00cc 084B     		ldr	r3, .L42+4
 561 00ce 1B68     		ldr	r3, [r3]
 562 00d0 022B     		cmp	r3, #2
 563 00d2 F8DD     		ble	.L39
 315:main.c        ****     while(1){
 564              		.loc 1 315 0
 565 00d4 FFF7FEFF 		bl	motor_stop
 566              	.LVL69:
 567              	.L40:
 317:main.c        ****     CyDelay(1000);
 568              		.loc 1 317 0 discriminator 1
 569 00d8 0648     		ldr	r0, .L42+8
 570 00da 2146     		mov	r1, r4
 571 00dc FFF7FEFF 		bl	printf
 572              	.LVL70:
 318:main.c        ****     }
 573              		.loc 1 318 0 discriminator 1
 574 00e0 4FF47A70 		mov	r0, #1000
 575 00e4 FFF7FEFF 		bl	CyDelay
 576              	.LVL71:
 319:main.c        ****     return 0;
 577              		.loc 1 319 0 discriminator 1
 578 00e8 F6E7     		b	.L40
 579              	.L43:
 580 00ea 00BF     		.align	2
 581              	.L42:
 582 00ec 00000000 		.word	sensor_isr_handler
 583 00f0 00000000 		.word	.LANCHOR1
 584 00f4 24000000 		.word	.LC3
 585              		.cfi_endproc
 586              	.LFE65:
 587              		.size	main, .-main
 588              		.section	.text._write,"ax",%progbits
 589              		.align	2
 590              		.global	_write
 591              		.thumb
 592              		.thumb_func
 593              		.type	_write, %function
 594              	_write:
 595              	.LFB68:
 372:main.c        **** //*/
 373:main.c        **** 
 374:main.c        ****  /* //motor//
 375:main.c        **** int main()
 376:main.c        **** {
 377:main.c        ****     CyGlobalIntEnable; 
 378:main.c        ****     UART_1_Start();
 379:main.c        **** 
 380:main.c        ****     motor_start();              // motor start
ARM GAS  C:\Users\Jukka\AppData\Local\Temp\ccdNFbr9.s 			page 19


 381:main.c        **** 
 382:main.c        ****     motor_forward(100,2000);     // moving forward
 383:main.c        ****     motor_turn(200,50,2000);     // turn
 384:main.c        ****     motor_turn(50,200,2000);     // turn
 385:main.c        ****     motor_backward(100,2000);    // movinb backward
 386:main.c        ****        
 387:main.c        ****     motor_stop();               // motor stop
 388:main.c        ****     
 389:main.c        ****     for(;;)
 390:main.c        ****     {
 391:main.c        **** 
 392:main.c        ****     }
 393:main.c        **** }
 394:main.c        **** //*/
 395:main.c        ****     
 396:main.c        **** 
 397:main.c        **** /*//gyroscope//
 398:main.c        **** int main()
 399:main.c        **** {
 400:main.c        ****     CyGlobalIntEnable; 
 401:main.c        ****     UART_1_Start();
 402:main.c        ****   
 403:main.c        ****     I2C_Start();
 404:main.c        ****   
 405:main.c        ****     uint8 X_L_G, X_H_G, Y_L_G, Y_H_G, Z_L_G, Z_H_G;
 406:main.c        ****     int16 X_AXIS_G, Y_AXIS_G, Z_AXIS_G;
 407:main.c        ****     
 408:main.c        ****     I2C_write(GYRO_ADDR, GYRO_CTRL1_REG, 0x0F);             // set gyroscope into active mode
 409:main.c        ****     I2C_write(GYRO_ADDR, GYRO_CTRL4_REG, 0x30);             // set full scale selection to 2000dps 
 410:main.c        ****     
 411:main.c        ****     for(;;)
 412:main.c        ****     {
 413:main.c        ****         //print out gyroscope output
 414:main.c        ****         X_L_G = I2C_read(GYRO_ADDR, OUT_X_AXIS_L);
 415:main.c        ****         X_H_G = I2C_read(GYRO_ADDR, OUT_X_AXIS_H);
 416:main.c        ****         X_AXIS_G = convert_raw(X_H_G, X_L_G);
 417:main.c        ****         
 418:main.c        ****         
 419:main.c        ****         Y_L_G = I2C_read(GYRO_ADDR, OUT_Y_AXIS_L);
 420:main.c        ****         Y_H_G = I2C_read(GYRO_ADDR, OUT_Y_AXIS_H);
 421:main.c        ****         Y_AXIS_G = convert_raw(Y_H_G, Y_L_G);
 422:main.c        ****         
 423:main.c        ****         
 424:main.c        ****         Z_L_G = I2C_read(GYRO_ADDR, OUT_Z_AXIS_L);
 425:main.c        ****         Z_H_G = I2C_read(GYRO_ADDR, OUT_Z_AXIS_H);
 426:main.c        ****         Z_AXIS_G = convert_raw(Z_H_G, Z_L_G);
 427:main.c        ****      
 428:main.c        ****         // If you want to print value
 429:main.c        ****         printf("%d %d %d \r\n", X_AXIS_G, Y_AXIS_G, Z_AXIS_G);
 430:main.c        ****         CyDelay(50);
 431:main.c        ****     }
 432:main.c        **** }   
 433:main.c        **** //*/
 434:main.c        **** 
 435:main.c        **** 
 436:main.c        **** /*//magnetometer//
 437:main.c        **** int main()
ARM GAS  C:\Users\Jukka\AppData\Local\Temp\ccdNFbr9.s 			page 20


 438:main.c        **** {
 439:main.c        ****     CyGlobalIntEnable; 
 440:main.c        ****     UART_1_Start();
 441:main.c        ****   
 442:main.c        ****     I2C_Start();
 443:main.c        ****    
 444:main.c        ****     uint8 X_L_M, X_H_M, Y_L_M, Y_H_M, Z_L_M, Z_H_M;
 445:main.c        ****     int16 X_AXIS, Y_AXIS, Z_AXIS;
 446:main.c        ****     
 447:main.c        ****     I2C_write(GYRO_ADDR, GYRO_CTRL1_REG, 0x0F);             // set gyroscope into active mode
 448:main.c        ****     I2C_write(GYRO_ADDR, GYRO_CTRL4_REG, 0x30);             // set full scale selection to 2000dps
 449:main.c        ****     I2C_write(ACCEL_MAG_ADDR, ACCEL_CTRL1_REG, 0x37);           // set accelerometer & magnetometer
 450:main.c        ****     I2C_write(ACCEL_MAG_ADDR, ACCEL_CTRL7_REG, 0x22);
 451:main.c        ****     
 452:main.c        ****     
 453:main.c        ****     for(;;)
 454:main.c        ****     {
 455:main.c        ****         X_L_M = I2C_read(ACCEL_MAG_ADDR, OUT_X_L_M);
 456:main.c        ****         X_H_M = I2C_read(ACCEL_MAG_ADDR, OUT_X_H_M);
 457:main.c        ****         X_AXIS = convert_raw(X_L_M, X_H_M);
 458:main.c        ****         
 459:main.c        ****         Y_L_M = I2C_read(ACCEL_MAG_ADDR, OUT_Y_L_M);
 460:main.c        ****         Y_H_M = I2C_read(ACCEL_MAG_ADDR, OUT_Y_H_M);
 461:main.c        ****         Y_AXIS = convert_raw(Y_L_M, Y_H_M);
 462:main.c        ****         
 463:main.c        ****         Z_L_M = I2C_read(ACCEL_MAG_ADDR, OUT_Z_L_M);
 464:main.c        ****         Z_H_M = I2C_read(ACCEL_MAG_ADDR, OUT_Z_H_M);
 465:main.c        ****         Z_AXIS = convert_raw(Z_L_M, Z_H_M);
 466:main.c        ****         
 467:main.c        ****         heading(X_AXIS, Y_AXIS);
 468:main.c        ****         printf("MAGNET: %d %d %d %d %d %d \r\n", X_L_M, X_H_M, Y_L_M, Y_H_M, Z_L_M, Z_H_M);
 469:main.c        ****         printf("%d %d %d \r\n", X_AXIS,Y_AXIS, Z_AXIS);
 470:main.c        ****         CyDelay(50);      
 471:main.c        ****     }
 472:main.c        **** }   
 473:main.c        **** //*/
 474:main.c        **** 
 475:main.c        **** 
 476:main.c        **** #if 0
 477:main.c        **** int rread(void)
 478:main.c        **** {
 479:main.c        ****     SC0_SetDriveMode(PIN_DM_STRONG);
 480:main.c        ****     SC0_Write(1);
 481:main.c        ****     CyDelayUs(10);
 482:main.c        ****     SC0_SetDriveMode(PIN_DM_DIG_HIZ);
 483:main.c        ****     Timer_1_Start();
 484:main.c        ****     uint16_t start = Timer_1_ReadCounter();
 485:main.c        ****     uint16_t end = 0;
 486:main.c        ****     while(!(Timer_1_ReadStatusRegister() & Timer_1_STATUS_TC)) {
 487:main.c        ****         if(SC0_Read() == 0 && end == 0) {
 488:main.c        ****             end = Timer_1_ReadCounter();
 489:main.c        ****         }
 490:main.c        ****     }
 491:main.c        ****     Timer_1_Stop();
 492:main.c        ****     
 493:main.c        ****     return (start - end);
 494:main.c        **** }
ARM GAS  C:\Users\Jukka\AppData\Local\Temp\ccdNFbr9.s 			page 21


 495:main.c        **** #endif
 496:main.c        **** 
 497:main.c        **** /* Don't remove the functions below */
 498:main.c        **** int _write(int file, char *ptr, int len)
 499:main.c        **** {
 596              		.loc 1 499 0
 597              		.cfi_startproc
 598              		@ args = 0, pretend = 0, frame = 0
 599              		@ frame_needed = 0, uses_anonymous_args = 0
 600              	.LVL72:
 601 0000 F8B5     		push	{r3, r4, r5, r6, r7, lr}
 602              		.cfi_def_cfa_offset 24
 603              		.cfi_offset 3, -24
 604              		.cfi_offset 4, -20
 605              		.cfi_offset 5, -16
 606              		.cfi_offset 6, -12
 607              		.cfi_offset 7, -8
 608              		.cfi_offset 14, -4
 609 0002 0C46     		mov	r4, r1
 610 0004 1746     		mov	r7, r2
 611              	.LVL73:
 500:main.c        ****     (void)file; /* Parameter is not used, suppress unused argument warning */
 501:main.c        **** 	int n;
 502:main.c        **** 	for(n = 0; n < len; n++) {
 612              		.loc 1 502 0
 613 0006 0025     		movs	r5, #0
 614 0008 0BE0     		b	.L45
 615              	.LVL74:
 616              	.L47:
 503:main.c        ****         if(*ptr == '\n') UART_1_PutChar('\r');
 617              		.loc 1 503 0
 618 000a 2378     		ldrb	r3, [r4]	@ zero_extendqisi2
 619 000c 0A2B     		cmp	r3, #10
 620 000e 02D1     		bne	.L46
 621              		.loc 1 503 0 is_stmt 0 discriminator 1
 622 0010 0D20     		movs	r0, #13
 623 0012 FFF7FEFF 		bl	UART_1_PutChar
 624              	.LVL75:
 625              	.L46:
 504:main.c        **** 		UART_1_PutChar(*ptr++);
 626              		.loc 1 504 0 is_stmt 1 discriminator 2
 627 0016 661C     		adds	r6, r4, #1
 628              	.LVL76:
 629 0018 2078     		ldrb	r0, [r4]	@ zero_extendqisi2
 630 001a FFF7FEFF 		bl	UART_1_PutChar
 631              	.LVL77:
 502:main.c        ****         if(*ptr == '\n') UART_1_PutChar('\r');
 632              		.loc 1 502 0 discriminator 2
 633 001e 0135     		adds	r5, r5, #1
 634              	.LVL78:
 635              		.loc 1 504 0 discriminator 2
 636 0020 3446     		mov	r4, r6
 637              	.LVL79:
 638              	.L45:
 502:main.c        ****         if(*ptr == '\n') UART_1_PutChar('\r');
 639              		.loc 1 502 0 discriminator 1
 640 0022 BD42     		cmp	r5, r7
ARM GAS  C:\Users\Jukka\AppData\Local\Temp\ccdNFbr9.s 			page 22


 641 0024 F1DB     		blt	.L47
 505:main.c        **** 	}
 506:main.c        **** 	return len;
 507:main.c        **** }
 642              		.loc 1 507 0
 643 0026 3846     		mov	r0, r7
 644 0028 F8BD     		pop	{r3, r4, r5, r6, r7, pc}
 645              		.cfi_endproc
 646              	.LFE68:
 647              		.size	_write, .-_write
 648 002a 00BF     		.section	.text._read,"ax",%progbits
 649              		.align	2
 650              		.global	_read
 651              		.thumb
 652              		.thumb_func
 653              		.type	_read, %function
 654              	_read:
 655              	.LFB69:
 508:main.c        **** 
 509:main.c        **** int _read (int file, char *ptr, int count)
 510:main.c        **** {
 656              		.loc 1 510 0
 657              		.cfi_startproc
 658              		@ args = 0, pretend = 0, frame = 0
 659              		@ frame_needed = 0, uses_anonymous_args = 0
 660              	.LVL80:
 661 0000 F8B5     		push	{r3, r4, r5, r6, r7, lr}
 662              		.cfi_def_cfa_offset 24
 663              		.cfi_offset 3, -24
 664              		.cfi_offset 4, -20
 665              		.cfi_offset 5, -16
 666              		.cfi_offset 6, -12
 667              		.cfi_offset 7, -8
 668              		.cfi_offset 14, -4
 669 0002 0F46     		mov	r7, r1
 670 0004 1446     		mov	r4, r2
 671              	.LVL81:
 511:main.c        ****     int chs = 0;
 672              		.loc 1 511 0
 673 0006 0026     		movs	r6, #0
 512:main.c        ****     char ch;
 513:main.c        ****  
 514:main.c        ****     (void)file; /* Parameter is not used, suppress unused argument warning */
 515:main.c        ****     while(count > 0) {
 674              		.loc 1 515 0
 675 0008 12E0     		b	.L51
 676              	.LVL82:
 677              	.L54:
 516:main.c        ****         ch = UART_1_GetChar();
 678              		.loc 1 516 0
 679 000a FFF7FEFF 		bl	UART_1_GetChar
 680              	.LVL83:
 517:main.c        ****         if(ch != 0) {
 681              		.loc 1 517 0
 682 000e 0546     		mov	r5, r0
 683 0010 70B1     		cbz	r0, .L51
 518:main.c        ****             UART_1_PutChar(ch);
ARM GAS  C:\Users\Jukka\AppData\Local\Temp\ccdNFbr9.s 			page 23


 684              		.loc 1 518 0
 685 0012 FFF7FEFF 		bl	UART_1_PutChar
 686              	.LVL84:
 519:main.c        ****             chs++;
 687              		.loc 1 519 0
 688 0016 0136     		adds	r6, r6, #1
 689              	.LVL85:
 520:main.c        ****             if(ch == '\r') {
 690              		.loc 1 520 0
 691 0018 0D2D     		cmp	r5, #13
 692 001a 03D1     		bne	.L52
 693              	.LVL86:
 521:main.c        ****                 ch = '\n';
 522:main.c        ****                 UART_1_PutChar(ch);
 694              		.loc 1 522 0
 695 001c 0A20     		movs	r0, #10
 696 001e FFF7FEFF 		bl	UART_1_PutChar
 697              	.LVL87:
 521:main.c        ****                 ch = '\n';
 698              		.loc 1 521 0
 699 0022 0A25     		movs	r5, #10
 700              	.LVL88:
 701              	.L52:
 523:main.c        ****             }
 524:main.c        ****             *ptr++ = ch;
 702              		.loc 1 524 0
 703 0024 7B1C     		adds	r3, r7, #1
 704              	.LVL89:
 705 0026 3D70     		strb	r5, [r7]
 525:main.c        ****             count--;
 706              		.loc 1 525 0
 707 0028 013C     		subs	r4, r4, #1
 708              	.LVL90:
 526:main.c        ****             if(ch == '\n') break;
 709              		.loc 1 526 0
 710 002a 0A2D     		cmp	r5, #10
 711 002c 02D0     		beq	.L53
 524:main.c        ****             count--;
 712              		.loc 1 524 0
 713 002e 1F46     		mov	r7, r3
 714              	.LVL91:
 715              	.L51:
 515:main.c        ****         ch = UART_1_GetChar();
 716              		.loc 1 515 0
 717 0030 002C     		cmp	r4, #0
 718 0032 EADC     		bgt	.L54
 719              	.LVL92:
 720              	.L53:
 527:main.c        ****         }
 528:main.c        ****     }
 529:main.c        ****     return chs;
 530:main.c        **** }
 721              		.loc 1 530 0
 722 0034 3046     		mov	r0, r6
 723 0036 F8BD     		pop	{r3, r4, r5, r6, r7, pc}
 724              		.cfi_endproc
 725              	.LFE69:
ARM GAS  C:\Users\Jukka\AppData\Local\Temp\ccdNFbr9.s 			page 24


 726              		.size	_read, .-_read
 727              		.global	blackLines
 728              		.global	right3
 729              		.global	right
 730              		.global	left3
 731              		.global	left
 732              		.data
 733              		.align	2
 734              		.set	.LANCHOR0,. + 0
 735              		.type	left, %object
 736              		.size	left, 4
 737              	left:
 738 0000 01000000 		.word	1
 739              		.type	left3, %object
 740              		.size	left3, 4
 741              	left3:
 742 0004 01000000 		.word	1
 743              		.type	right, %object
 744              		.size	right, 4
 745              	right:
 746 0008 01000000 		.word	1
 747              		.type	right3, %object
 748              		.size	right3, 4
 749              	right3:
 750 000c 01000000 		.word	1
 751              		.section	.rodata.str1.4,"aMS",%progbits,1
 752              		.align	2
 753              	.LC0:
 754 0000 426C696E 		.ascii	"Blinking\000"
 754      6B696E67 
 754      00
 755 0009 000000   		.space	3
 756              	.LC1:
 757 000c 25642025 		.ascii	"%d %f\015\012\000"
 757      660D0A00 
 758              	.LC2:
 759 0014 42617474 		.ascii	"Battery low!\000"
 759      65727920 
 759      6C6F7721 
 759      00
 760 0021 000000   		.space	3
 761              	.LC3:
 762 0024 256C640A 		.ascii	"%ld\012\000"
 762      00
 763 0029 000000   		.bss
 764              		.align	2
 765              		.set	.LANCHOR1,. + 0
 766              		.type	blackLines, %object
 767              		.size	blackLines, 4
 768              	blackLines:
 769 0000 00000000 		.space	4
 770              		.text
 771              	.Letext0:
 772              		.file 2 "c:\\program files (x86)\\cypress\\psoc creator\\4.0\\psoc creator\\import\\gnu\\arm\\4.9.
 773              		.file 3 "c:\\program files (x86)\\cypress\\psoc creator\\4.0\\psoc creator\\import\\gnu\\arm\\4.9.
 774              		.file 4 "Generated_Source\\PSoC5/cytypes.h"
 775              		.file 5 ".\\ZumoLibrary/Reflectance.h"
ARM GAS  C:\Users\Jukka\AppData\Local\Temp\ccdNFbr9.s 			page 25


 776              		.file 6 "Generated_Source\\PSoC5/core_cm3.h"
 777              		.file 7 "<built-in>"
 778              		.file 8 "Generated_Source\\PSoC5/BatteryLed.h"
 779              		.file 9 "Generated_Source\\PSoC5/CyLib.h"
 780              		.file 10 "Generated_Source\\PSoC5/ADC_Battery.h"
 781              		.file 11 "c:\\program files (x86)\\cypress\\psoc creator\\4.0\\psoc creator\\import\\gnu\\arm\\4.9
 782              		.file 12 ".\\ZumoLibrary/Motor.h"
 783              		.file 13 "Generated_Source\\PSoC5/UART_1.h"
 784              		.file 14 "Generated_Source\\PSoC5/sensor_isr.h"
 785              		.file 15 "Generated_Source\\PSoC5/IR_led.h"
 786              		.file 16 "Generated_Source\\PSoC5/SW1.h"