ARM GAS  C:\Users\Jukka\AppData\Local\Temp\ccbdXjrX.s 			page 1


   1              		.syntax unified
   2              		.cpu cortex-m3
   3              		.fpu softvfp
   4              		.eabi_attribute 20, 1
   5              		.eabi_attribute 21, 1
   6              		.eabi_attribute 23, 3
   7              		.eabi_attribute 24, 1
   8              		.eabi_attribute 25, 1
   9              		.eabi_attribute 26, 1
  10              		.eabi_attribute 30, 1
  11              		.eabi_attribute 34, 1
  12              		.eabi_attribute 18, 4
  13              		.thumb
  14              		.file	"Motor.c"
  15              		.text
  16              	.Ltext0:
  17              		.cfi_sections	.debug_frame
  18              		.section	.text.motor_start,"ax",%progbits
  19              		.align	2
  20              		.global	motor_start
  21              		.thumb
  22              		.thumb_func
  23              		.type	motor_start, %function
  24              	motor_start:
  25              	.LFB63:
  26              		.file 1 "ZumoLibrary\\Motor.c"
   1:ZumoLibrary/Motor.c **** /**
   2:ZumoLibrary/Motor.c ****  * @file    Motor.c
   3:ZumoLibrary/Motor.c ****  * @brief   Basic methods for operating motor sensor. For more details, please refer to Motor.h fil
   4:ZumoLibrary/Motor.c ****  * @details included in Zumo shield
   5:ZumoLibrary/Motor.c **** */
   6:ZumoLibrary/Motor.c **** #include "Motor.h"
   7:ZumoLibrary/Motor.c **** 
   8:ZumoLibrary/Motor.c **** 
   9:ZumoLibrary/Motor.c **** /**
  10:ZumoLibrary/Motor.c **** * @brief    Starting motor sensors
  11:ZumoLibrary/Motor.c **** * @details  
  12:ZumoLibrary/Motor.c **** */
  13:ZumoLibrary/Motor.c **** void motor_start()
  14:ZumoLibrary/Motor.c **** {
  27              		.loc 1 14 0
  28              		.cfi_startproc
  29              		@ args = 0, pretend = 0, frame = 0
  30              		@ frame_needed = 0, uses_anonymous_args = 0
  31 0000 08B5     		push	{r3, lr}
  32              		.cfi_def_cfa_offset 8
  33              		.cfi_offset 3, -8
  34              		.cfi_offset 14, -4
  15:ZumoLibrary/Motor.c ****     PWM_Start();
  35              		.loc 1 15 0
  36 0002 FFF7FEFF 		bl	PWM_Start
  37              	.LVL0:
  38 0006 08BD     		pop	{r3, pc}
  39              		.cfi_endproc
  40              	.LFE63:
  41              		.size	motor_start, .-motor_start
  42              		.section	.text.motor_stop,"ax",%progbits
ARM GAS  C:\Users\Jukka\AppData\Local\Temp\ccbdXjrX.s 			page 2


  43              		.align	2
  44              		.global	motor_stop
  45              		.thumb
  46              		.thumb_func
  47              		.type	motor_stop, %function
  48              	motor_stop:
  49              	.LFB64:
  16:ZumoLibrary/Motor.c **** }
  17:ZumoLibrary/Motor.c **** 
  18:ZumoLibrary/Motor.c **** 
  19:ZumoLibrary/Motor.c **** /**
  20:ZumoLibrary/Motor.c **** * @brief    Stopping motor sensors
  21:ZumoLibrary/Motor.c **** * @details
  22:ZumoLibrary/Motor.c **** */
  23:ZumoLibrary/Motor.c **** void motor_stop()
  24:ZumoLibrary/Motor.c **** {
  50              		.loc 1 24 0
  51              		.cfi_startproc
  52              		@ args = 0, pretend = 0, frame = 0
  53              		@ frame_needed = 0, uses_anonymous_args = 0
  54 0000 08B5     		push	{r3, lr}
  55              		.cfi_def_cfa_offset 8
  56              		.cfi_offset 3, -8
  57              		.cfi_offset 14, -4
  25:ZumoLibrary/Motor.c ****     PWM_Stop();
  58              		.loc 1 25 0
  59 0002 FFF7FEFF 		bl	PWM_Stop
  60              	.LVL1:
  61 0006 08BD     		pop	{r3, pc}
  62              		.cfi_endproc
  63              	.LFE64:
  64              		.size	motor_stop, .-motor_stop
  65              		.section	.text.motor_forward,"ax",%progbits
  66              		.align	2
  67              		.global	motor_forward
  68              		.thumb
  69              		.thumb_func
  70              		.type	motor_forward, %function
  71              	motor_forward:
  72              	.LFB65:
  26:ZumoLibrary/Motor.c **** }
  27:ZumoLibrary/Motor.c **** 
  28:ZumoLibrary/Motor.c **** 
  29:ZumoLibrary/Motor.c **** /**
  30:ZumoLibrary/Motor.c **** * @brief    Moving motors forward
  31:ZumoLibrary/Motor.c **** * @details  giveing same speed to each side of PWM to make motors go forward
  32:ZumoLibrary/Motor.c **** * @param    uint8 speed : speed value
  33:ZumoLibrary/Motor.c **** * @param    uint32 delay : delay time
  34:ZumoLibrary/Motor.c **** */
  35:ZumoLibrary/Motor.c **** void motor_forward(uint8 speed,uint32 delay)
  36:ZumoLibrary/Motor.c **** {
  73              		.loc 1 36 0
  74              		.cfi_startproc
  75              		@ args = 0, pretend = 0, frame = 0
  76              		@ frame_needed = 0, uses_anonymous_args = 0
  77              	.LVL2:
  78 0000 38B5     		push	{r3, r4, r5, lr}
ARM GAS  C:\Users\Jukka\AppData\Local\Temp\ccbdXjrX.s 			page 3


  79              		.cfi_def_cfa_offset 16
  80              		.cfi_offset 3, -16
  81              		.cfi_offset 4, -12
  82              		.cfi_offset 5, -8
  83              		.cfi_offset 14, -4
  84 0002 0446     		mov	r4, r0
  85 0004 0D46     		mov	r5, r1
  37:ZumoLibrary/Motor.c ****     MotorDirLeft_Write(0);      // set LeftMotor forward mode
  86              		.loc 1 37 0
  87 0006 0020     		movs	r0, #0
  88              	.LVL3:
  89 0008 FFF7FEFF 		bl	MotorDirLeft_Write
  90              	.LVL4:
  38:ZumoLibrary/Motor.c ****     MotorDirRight_Write(0);     // set RightMotor forward mode
  91              		.loc 1 38 0
  92 000c 0020     		movs	r0, #0
  93 000e FFF7FEFF 		bl	MotorDirRight_Write
  94              	.LVL5:
  39:ZumoLibrary/Motor.c ****     PWM_WriteCompare1(speed); 
  95              		.loc 1 39 0
  96 0012 2046     		mov	r0, r4
  97 0014 FFF7FEFF 		bl	PWM_WriteCompare1
  98              	.LVL6:
  40:ZumoLibrary/Motor.c ****     PWM_WriteCompare2(speed); 
  99              		.loc 1 40 0
 100 0018 2046     		mov	r0, r4
 101 001a FFF7FEFF 		bl	PWM_WriteCompare2
 102              	.LVL7:
  41:ZumoLibrary/Motor.c ****     CyDelay(delay);
 103              		.loc 1 41 0
 104 001e 2846     		mov	r0, r5
 105 0020 FFF7FEFF 		bl	CyDelay
 106              	.LVL8:
 107 0024 38BD     		pop	{r3, r4, r5, pc}
 108              		.cfi_endproc
 109              	.LFE65:
 110              		.size	motor_forward, .-motor_forward
 111 0026 00BF     		.section	.text.motor_turn,"ax",%progbits
 112              		.align	2
 113              		.global	motor_turn
 114              		.thumb
 115              		.thumb_func
 116              		.type	motor_turn, %function
 117              	motor_turn:
 118              	.LFB66:
  42:ZumoLibrary/Motor.c **** }
  43:ZumoLibrary/Motor.c **** 
  44:ZumoLibrary/Motor.c **** 
  45:ZumoLibrary/Motor.c **** /**
  46:ZumoLibrary/Motor.c **** * @brief    Moving motors to make a turn 
  47:ZumoLibrary/Motor.c **** * @details  moving left when l_speed < r_speed or moving right when l_speed > r_speed
  48:ZumoLibrary/Motor.c **** * @param    uint8 l_speed : left motor speed value
  49:ZumoLibrary/Motor.c **** * @param    uint8 r_speed : right motor speed value
  50:ZumoLibrary/Motor.c **** * @param    uint32 delay : delay time
  51:ZumoLibrary/Motor.c **** */
  52:ZumoLibrary/Motor.c **** void motor_turn(uint8 l_speed, uint8 r_speed, uint32 delay)
  53:ZumoLibrary/Motor.c **** {
ARM GAS  C:\Users\Jukka\AppData\Local\Temp\ccbdXjrX.s 			page 4


 119              		.loc 1 53 0
 120              		.cfi_startproc
 121              		@ args = 0, pretend = 0, frame = 0
 122              		@ frame_needed = 0, uses_anonymous_args = 0
 123              	.LVL9:
 124 0000 70B5     		push	{r4, r5, r6, lr}
 125              		.cfi_def_cfa_offset 16
 126              		.cfi_offset 4, -16
 127              		.cfi_offset 5, -12
 128              		.cfi_offset 6, -8
 129              		.cfi_offset 14, -4
 130 0002 0646     		mov	r6, r0
 131 0004 0D46     		mov	r5, r1
 132 0006 1446     		mov	r4, r2
  54:ZumoLibrary/Motor.c ****     MotorDirLeft_Write(0);
 133              		.loc 1 54 0
 134 0008 0020     		movs	r0, #0
 135              	.LVL10:
 136 000a FFF7FEFF 		bl	MotorDirLeft_Write
 137              	.LVL11:
  55:ZumoLibrary/Motor.c ****     MotorDirRight_Write(0);
 138              		.loc 1 55 0
 139 000e 0020     		movs	r0, #0
 140 0010 FFF7FEFF 		bl	MotorDirRight_Write
 141              	.LVL12:
  56:ZumoLibrary/Motor.c ****     PWM_WriteCompare1(l_speed); 
 142              		.loc 1 56 0
 143 0014 3046     		mov	r0, r6
 144 0016 FFF7FEFF 		bl	PWM_WriteCompare1
 145              	.LVL13:
  57:ZumoLibrary/Motor.c ****     PWM_WriteCompare2(r_speed); 
 146              		.loc 1 57 0
 147 001a 2846     		mov	r0, r5
 148 001c FFF7FEFF 		bl	PWM_WriteCompare2
 149              	.LVL14:
  58:ZumoLibrary/Motor.c ****     CyDelay(delay);
 150              		.loc 1 58 0
 151 0020 2046     		mov	r0, r4
 152 0022 FFF7FEFF 		bl	CyDelay
 153              	.LVL15:
 154 0026 70BD     		pop	{r4, r5, r6, pc}
 155              		.cfi_endproc
 156              	.LFE66:
 157              		.size	motor_turn, .-motor_turn
 158              		.section	.text.motor_backward,"ax",%progbits
 159              		.align	2
 160              		.global	motor_backward
 161              		.thumb
 162              		.thumb_func
 163              		.type	motor_backward, %function
 164              	motor_backward:
 165              	.LFB67:
  59:ZumoLibrary/Motor.c **** }
  60:ZumoLibrary/Motor.c **** 
  61:ZumoLibrary/Motor.c **** 
  62:ZumoLibrary/Motor.c **** /**
  63:ZumoLibrary/Motor.c **** * @brief    Moving motors backward
ARM GAS  C:\Users\Jukka\AppData\Local\Temp\ccbdXjrX.s 			page 5


  64:ZumoLibrary/Motor.c **** * @details  setting backward mode to each motors and gives same speed to each side of PWM
  65:ZumoLibrary/Motor.c **** * @param    uint8 speed : speed value
  66:ZumoLibrary/Motor.c **** * @param    uint32 delay : delay time
  67:ZumoLibrary/Motor.c **** */
  68:ZumoLibrary/Motor.c **** void motor_backward(uint8 speed,uint32 delay)
  69:ZumoLibrary/Motor.c **** {
 166              		.loc 1 69 0
 167              		.cfi_startproc
 168              		@ args = 0, pretend = 0, frame = 0
 169              		@ frame_needed = 0, uses_anonymous_args = 0
 170              	.LVL16:
 171 0000 38B5     		push	{r3, r4, r5, lr}
 172              		.cfi_def_cfa_offset 16
 173              		.cfi_offset 3, -16
 174              		.cfi_offset 4, -12
 175              		.cfi_offset 5, -8
 176              		.cfi_offset 14, -4
 177 0002 0446     		mov	r4, r0
 178 0004 0D46     		mov	r5, r1
  70:ZumoLibrary/Motor.c ****     MotorDirLeft_Write(1);      // set LeftMotor backward mode
 179              		.loc 1 70 0
 180 0006 0120     		movs	r0, #1
 181              	.LVL17:
 182 0008 FFF7FEFF 		bl	MotorDirLeft_Write
 183              	.LVL18:
  71:ZumoLibrary/Motor.c ****     MotorDirRight_Write(1);     // set RightMotor backward mode
 184              		.loc 1 71 0
 185 000c 0120     		movs	r0, #1
 186 000e FFF7FEFF 		bl	MotorDirRight_Write
 187              	.LVL19:
  72:ZumoLibrary/Motor.c ****     PWM_WriteCompare1(speed); 
 188              		.loc 1 72 0
 189 0012 2046     		mov	r0, r4
 190 0014 FFF7FEFF 		bl	PWM_WriteCompare1
 191              	.LVL20:
  73:ZumoLibrary/Motor.c ****     PWM_WriteCompare2(speed); 
 192              		.loc 1 73 0
 193 0018 2046     		mov	r0, r4
 194 001a FFF7FEFF 		bl	PWM_WriteCompare2
 195              	.LVL21:
  74:ZumoLibrary/Motor.c ****     CyDelay(delay);
 196              		.loc 1 74 0
 197 001e 2846     		mov	r0, r5
 198 0020 FFF7FEFF 		bl	CyDelay
 199              	.LVL22:
 200 0024 38BD     		pop	{r3, r4, r5, pc}
 201              		.cfi_endproc
 202              	.LFE67:
 203              		.size	motor_backward, .-motor_backward
 204 0026 00BF     		.section	.text.motor_turnHardLeft,"ax",%progbits
 205              		.align	2
 206              		.global	motor_turnHardLeft
 207              		.thumb
 208              		.thumb_func
 209              		.type	motor_turnHardLeft, %function
 210              	motor_turnHardLeft:
 211              	.LFB68:
ARM GAS  C:\Users\Jukka\AppData\Local\Temp\ccbdXjrX.s 			page 6


  75:ZumoLibrary/Motor.c **** }
  76:ZumoLibrary/Motor.c **** void motor_turnHardLeft (uint8 speed1,uint8 speed2,uint32 delay)
  77:ZumoLibrary/Motor.c **** {
 212              		.loc 1 77 0
 213              		.cfi_startproc
 214              		@ args = 0, pretend = 0, frame = 0
 215              		@ frame_needed = 0, uses_anonymous_args = 0
 216              	.LVL23:
 217 0000 70B5     		push	{r4, r5, r6, lr}
 218              		.cfi_def_cfa_offset 16
 219              		.cfi_offset 4, -16
 220              		.cfi_offset 5, -12
 221              		.cfi_offset 6, -8
 222              		.cfi_offset 14, -4
 223 0002 0646     		mov	r6, r0
 224 0004 0D46     		mov	r5, r1
 225 0006 1446     		mov	r4, r2
  78:ZumoLibrary/Motor.c ****     MotorDirLeft_Write(1);      // set LeftMotor backward mode
 226              		.loc 1 78 0
 227 0008 0120     		movs	r0, #1
 228              	.LVL24:
 229 000a FFF7FEFF 		bl	MotorDirLeft_Write
 230              	.LVL25:
  79:ZumoLibrary/Motor.c ****     MotorDirRight_Write(0);
 231              		.loc 1 79 0
 232 000e 0020     		movs	r0, #0
 233 0010 FFF7FEFF 		bl	MotorDirRight_Write
 234              	.LVL26:
  80:ZumoLibrary/Motor.c ****     PWM_WriteCompare1(speed1); 
 235              		.loc 1 80 0
 236 0014 3046     		mov	r0, r6
 237 0016 FFF7FEFF 		bl	PWM_WriteCompare1
 238              	.LVL27:
  81:ZumoLibrary/Motor.c ****     PWM_WriteCompare2(speed2);
 239              		.loc 1 81 0
 240 001a 2846     		mov	r0, r5
 241 001c FFF7FEFF 		bl	PWM_WriteCompare2
 242              	.LVL28:
  82:ZumoLibrary/Motor.c ****     CyDelay(delay);
 243              		.loc 1 82 0
 244 0020 2046     		mov	r0, r4
 245 0022 FFF7FEFF 		bl	CyDelay
 246              	.LVL29:
 247 0026 70BD     		pop	{r4, r5, r6, pc}
 248              		.cfi_endproc
 249              	.LFE68:
 250              		.size	motor_turnHardLeft, .-motor_turnHardLeft
 251              		.section	.text.motor_turnHardRight,"ax",%progbits
 252              		.align	2
 253              		.global	motor_turnHardRight
 254              		.thumb
 255              		.thumb_func
 256              		.type	motor_turnHardRight, %function
 257              	motor_turnHardRight:
 258              	.LFB69:
  83:ZumoLibrary/Motor.c **** }
  84:ZumoLibrary/Motor.c **** void motor_turnHardRight (uint8 speed1, uint8 speed2  ,uint32 delay)
ARM GAS  C:\Users\Jukka\AppData\Local\Temp\ccbdXjrX.s 			page 7


  85:ZumoLibrary/Motor.c **** {
 259              		.loc 1 85 0
 260              		.cfi_startproc
 261              		@ args = 0, pretend = 0, frame = 0
 262              		@ frame_needed = 0, uses_anonymous_args = 0
 263              	.LVL30:
 264 0000 70B5     		push	{r4, r5, r6, lr}
 265              		.cfi_def_cfa_offset 16
 266              		.cfi_offset 4, -16
 267              		.cfi_offset 5, -12
 268              		.cfi_offset 6, -8
 269              		.cfi_offset 14, -4
 270 0002 0646     		mov	r6, r0
 271 0004 0D46     		mov	r5, r1
 272 0006 1446     		mov	r4, r2
  86:ZumoLibrary/Motor.c ****     MotorDirLeft_Write(0);
 273              		.loc 1 86 0
 274 0008 0020     		movs	r0, #0
 275              	.LVL31:
 276 000a FFF7FEFF 		bl	MotorDirLeft_Write
 277              	.LVL32:
  87:ZumoLibrary/Motor.c ****     MotorDirRight_Write(1);     // set RightMotor backward mode
 278              		.loc 1 87 0
 279 000e 0120     		movs	r0, #1
 280 0010 FFF7FEFF 		bl	MotorDirRight_Write
 281              	.LVL33:
  88:ZumoLibrary/Motor.c ****     PWM_WriteCompare1(speed1); 
 282              		.loc 1 88 0
 283 0014 3046     		mov	r0, r6
 284 0016 FFF7FEFF 		bl	PWM_WriteCompare1
 285              	.LVL34:
  89:ZumoLibrary/Motor.c ****     PWM_WriteCompare2(speed2);
 286              		.loc 1 89 0
 287 001a 2846     		mov	r0, r5
 288 001c FFF7FEFF 		bl	PWM_WriteCompare2
 289              	.LVL35:
  90:ZumoLibrary/Motor.c ****     CyDelay(delay);
 290              		.loc 1 90 0
 291 0020 2046     		mov	r0, r4
 292 0022 FFF7FEFF 		bl	CyDelay
 293              	.LVL36:
 294 0026 70BD     		pop	{r4, r5, r6, pc}
 295              		.cfi_endproc
 296              	.LFE69:
 297              		.size	motor_turnHardRight, .-motor_turnHardRight
 298              		.text
 299              	.Letext0:
 300              		.file 2 "c:\\program files (x86)\\cypress\\psoc creator\\4.0\\psoc creator\\import\\gnu\\arm\\4.9.
 301              		.file 3 "c:\\program files (x86)\\cypress\\psoc creator\\4.0\\psoc creator\\import\\gnu\\arm\\4.9.
 302              		.file 4 "Generated_Source\\PSoC5/cytypes.h"
 303              		.file 5 "Generated_Source\\PSoC5/PWM.h"
 304              		.file 6 "Generated_Source\\PSoC5/MotorDirLeft.h"
 305              		.file 7 "Generated_Source\\PSoC5/MotorDirRight.h"
 306              		.file 8 "Generated_Source\\PSoC5/core_cm3.h"
 307              		.file 9 "Generated_Source\\PSoC5/CyLib.h"